target datalayout = "e-m:e-p270:32:32-p271:32:32-p272:64:64-i64:64-i128:128-f80:128-n8:16:32:64-S128"
target triple = "x86_64-pc-linux-gnu"

%struct.H5D_shared_t = type { i64, i8, i64, ptr, ptr, i64, i64, %struct.H5D_dcpl_cache_t, %struct.H5O_layout_t, i8, i32, [32 x i64], [32 x i64], [32 x i64], %struct.anon.6, %struct.H5D_append_flush_t, ptr, ptr }
%struct.H5D_dcpl_cache_t = type { %struct.H5O_fill_t, %struct.H5O_pline_t, %struct.H5O_efl_t }
%struct.H5O_fill_t = type { %struct.H5O_shared_t, i32, ptr, i64, ptr, i32, i32, i8 }
%struct.H5O_shared_t = type { i32, ptr, i32, %union.anon }
%union.anon = type { %struct.H5O_mesg_loc_t }
%struct.H5O_mesg_loc_t = type { i32, i64 }
%struct.H5O_pline_t = type { %struct.H5O_shared_t, i32, i64, i64, ptr }
%struct.H5O_efl_t = type { i64, i64, i64, ptr }
%struct.H5O_layout_t = type { i32, i32, ptr, %union.anon.0, %struct.H5O_storage_t }
%union.anon.0 = type { %struct.H5O_layout_chunk_t }
%struct.H5O_layout_chunk_t = type { i32, i8, i32, [33 x i32], i32, i32, i64, i64, [33 x i64], [33 x i64], [33 x i64], [33 x i64], %union.anon.1 }
%union.anon.1 = type { %struct.H5O_layout_chunk_earray_t }
%struct.H5O_layout_chunk_earray_t = type { %struct.anon.2, i32, [33 x i32], [33 x i64], [33 x i64] }
%struct.anon.2 = type { i8, i8, i8, i8, i8 }
%struct.H5O_storage_t = type { i32, %union.anon.4 }
%union.anon.4 = type { %struct.H5O_storage_virtual_t }
%struct.H5O_storage_virtual_t = type { %struct.H5HG_t, i64, ptr, i64, [32 x i64], i32, i64, i64, i64, i8 }
%struct.H5HG_t = type { i64, i64 }
%struct.anon.6 = type { %struct.H5D_rdcdc_t, %struct.H5D_rdcc_t }
%struct.H5D_rdcdc_t = type { ptr, i64, i64, i64, i8 }
%struct.H5D_rdcc_t = type { %struct.anon.7, i64, i64, double, ptr, ptr, ptr, i64, i32, %struct.H5D_chunk_cached_t, ptr, ptr, ptr, ptr, [32 x i64], [32 x i64], [32 x i32] }
%struct.anon.7 = type { i32, i32, i32, i32 }
%struct.H5D_chunk_cached_t = type { i8, [33 x i64], i64, i32, i64, i32 }
%struct.H5D_append_flush_t = type { i32, [32 x i64], ptr, ptr }
%struct.H5D_t = type { %struct.H5O_loc_t, %struct.H5G_name_t, ptr }
%struct.H5O_loc_t = type { ptr, i64, i8 }
%struct.H5G_name_t = type { ptr, ptr, i32 }

@H5D_init_g = external global i8, align 1
@H5_libterm_g = external global i8, align 1
@.str.2 = private unnamed_addr constant [100 x i8] c"generated/home/dtcxzyw/WorkSpace/Projects/compilers/llvm-opt-benchmark/bench/hdf5/hdf5/src/H5Dint.c\00", align 1
@H5E_CANTINIT_g = external global i64, align 8
@H5E_DATASET_g = external global i64, align 8
@H5E_IO_g = external global i64, align 8
@H5E_UNSUPPORTED_g = external global i64, align 8
@.str.67 = private unnamed_addr constant [27 x i8] c"unsupported storage layout\00", align 1
@__func__.H5D__init_storage = private unnamed_addr constant [18 x i8] c"H5D__init_storage\00", align 1
@.str.263 = private unnamed_addr constant [45 x i8] c"unable to initialize compact dataset storage\00", align 1
@.str.264 = private unnamed_addr constant [41 x i8] c"unable to allocate all chunks of dataset\00", align 1

; Function Attrs: nounwind uwtable
define internal i32 @H5D__init_storage(ptr noundef %0, i1 noundef zeroext %1, ptr noundef %2) #0 {
  %4 = alloca i32, align 4
  %5 = alloca ptr, align 8
  %6 = alloca i8, align 1
  %7 = alloca ptr, align 8
  %8 = alloca i32, align 4
  %9 = alloca i8, align 1
  %10 = alloca [33 x i64], align 16
  %11 = alloca i32, align 4
  store ptr %0, ptr %5, align 8, !tbaa !49
  %12 = zext i1 %1 to i8
  store i8 %12, ptr %6, align 1, !tbaa !7
  store ptr %2, ptr %7, align 8, !tbaa !140
  call void @llvm.lifetime.start.p0(i64 4, ptr %8) #12
  store i32 0, ptr %8, align 4, !tbaa !3
  call void @llvm.lifetime.start.p0(i64 1, ptr %9) #12
  store i8 0, ptr %9, align 1, !tbaa !7
  %13 = load i8, ptr @H5D_init_g, align 1, !tbaa !7, !range !9, !noundef !10
  %14 = trunc i8 %13 to i1
  br i1 %14, label %19, label %15

15:                                               ; preds = %3
  %16 = load i8, ptr @H5_libterm_g, align 1, !tbaa !7, !range !9, !noundef !10
  %17 = trunc i8 %16 to i1
  %18 = xor i1 %17, true
  br label %19

19:                                               ; preds = %15, %3
  %20 = phi i1 [ true, %3 ], [ %18, %15 ]
  %21 = xor i1 %20, true
  %22 = xor i1 %21, true
  %23 = zext i1 %22 to i32
  %24 = sext i32 %23 to i64
  %25 = call i64 @llvm.expect.i64(i64 %24, i64 1)
  %26 = icmp ne i64 %25, 0
  br i1 %26, label %27, label %164

27:                                               ; preds = %19
  %28 = load ptr, ptr %5, align 8, !tbaa !49
  %29 = getelementptr inbounds nuw %struct.H5D_t, ptr %28, i32 0, i32 2
  %30 = load ptr, ptr %29, align 8, !tbaa !61
  %31 = getelementptr inbounds nuw %struct.H5D_shared_t, ptr %30, i32 0, i32 8
  %32 = getelementptr inbounds nuw %struct.H5O_layout_t, ptr %31, i32 0, i32 0
  %33 = load i32, ptr %32, align 8, !tbaa !67
  switch i32 %33, label %143 [
    i32 0, label %34
    i32 1, label %62
    i32 2, label %108
    i32 3, label %142
    i32 -1, label %142
    i32 4, label %142
  ]

34:                                               ; preds = %27
  %35 = load i8, ptr %6, align 1, !tbaa !7, !range !9, !noundef !10
  %36 = trunc i8 %35 to i1
  br i1 %36, label %61, label %37

37:                                               ; preds = %34
  %38 = load ptr, ptr %5, align 8, !tbaa !49
  %39 = call i32 @H5D__compact_fill(ptr noundef %38)
  %40 = icmp slt i32 %39, 0
  br i1 %40, label %41, label %60

41:                                               ; preds = %37
  br label %42

42:                                               ; preds = %41
  br label %43

43:                                               ; preds = %42
  br label %44

44:                                               ; preds = %43
  %45 = load i64, ptr @H5E_DATASET_g, align 8, !tbaa !11
  %46 = load i64, ptr @H5E_CANTINIT_g, align 8, !tbaa !11
  %47 = call i32 (ptr, ptr, i32, i64, i64, ptr, ...) @H5E_printf_stack(ptr noundef @.str.2, ptr noundef @__func__.H5D__init_storage, i32 noundef 2490, i64 noundef %45, i64 noundef %46, ptr noundef @.str.263)
  br label %48

48:                                               ; preds = %44
  br label %49

49:                                               ; preds = %48
  store i8 1, ptr %9, align 1, !tbaa !7
  %50 = load i8, ptr %9, align 1, !tbaa !7, !range !9, !noundef !10
  %51 = trunc i8 %50 to i1
  %52 = zext i1 %51 to i8
  store i8 %52, ptr %9, align 1, !tbaa !7
  br label %53

53:                                               ; preds = %49
  br label %54

54:                                               ; preds = %53
  br label %55

55:                                               ; preds = %54
  store i32 -1, ptr %8, align 4, !tbaa !3
  br label %163

56:                                               ; No predecessors!
  br label %57

57:                                               ; preds = %56
  br label %58

58:                                               ; preds = %57
  br label %59

59:                                               ; preds = %58
  br label %60

60:                                               ; preds = %59, %37
  br label %61

61:                                               ; preds = %60, %34
  br label %162

62:                                               ; preds = %27
  %63 = load ptr, ptr %5, align 8, !tbaa !49
  %64 = getelementptr inbounds nuw %struct.H5D_t, ptr %63, i32 0, i32 2
  %65 = load ptr, ptr %64, align 8, !tbaa !61
  %66 = getelementptr inbounds nuw %struct.H5D_shared_t, ptr %65, i32 0, i32 7
  %67 = getelementptr inbounds nuw %struct.H5D_dcpl_cache_t, ptr %66, i32 0, i32 2
  %68 = getelementptr inbounds nuw %struct.H5O_efl_t, ptr %67, i32 0, i32 2
  %69 = load i64, ptr %68, align 8, !tbaa !142
  %70 = icmp eq i64 %69, 0
  br i1 %70, label %80, label %71

71:                                               ; preds = %62
  %72 = load ptr, ptr %5, align 8, !tbaa !49
  %73 = getelementptr inbounds nuw %struct.H5D_t, ptr %72, i32 0, i32 2
  %74 = load ptr, ptr %73, align 8, !tbaa !61
  %75 = getelementptr inbounds nuw %struct.H5D_shared_t, ptr %74, i32 0, i32 7
  %76 = getelementptr inbounds nuw %struct.H5D_dcpl_cache_t, ptr %75, i32 0, i32 0
  %77 = getelementptr inbounds nuw %struct.H5O_fill_t, ptr %76, i32 0, i32 4
  %78 = load ptr, ptr %77, align 8, !tbaa !144
  %79 = icmp ne ptr %78, null
  br i1 %79, label %80, label %107

80:                                               ; preds = %71, %62
  %81 = load i8, ptr %6, align 1, !tbaa !7, !range !9, !noundef !10
  %82 = trunc i8 %81 to i1
  br i1 %82, label %107, label %83

83:                                               ; preds = %80
  %84 = load ptr, ptr %5, align 8, !tbaa !49
  %85 = call i32 @H5D__contig_fill(ptr noundef %84)
  %86 = icmp slt i32 %85, 0
  br i1 %86, label %87, label %106

87:                                               ; preds = %83
  br label %88

88:                                               ; preds = %87
  br label %89

89:                                               ; preds = %88
  br label %90

90:                                               ; preds = %89
  %91 = load i64, ptr @H5E_DATASET_g, align 8, !tbaa !11
  %92 = load i64, ptr @H5E_CANTINIT_g, align 8, !tbaa !11
  %93 = call i32 (ptr, ptr, i32, i64, i64, ptr, ...) @H5E_printf_stack(ptr noundef @.str.2, ptr noundef @__func__.H5D__init_storage, i32 noundef 2500, i64 noundef %91, i64 noundef %92, ptr noundef @.str.264)
  br label %94

94:                                               ; preds = %90
  br label %95

95:                                               ; preds = %94
  store i8 1, ptr %9, align 1, !tbaa !7
  %96 = load i8, ptr %9, align 1, !tbaa !7, !range !9, !noundef !10
  %97 = trunc i8 %96 to i1
  %98 = zext i1 %97 to i8
  store i8 %98, ptr %9, align 1, !tbaa !7
  br label %99

99:                                               ; preds = %95
  br label %100

100:                                              ; preds = %99
  br label %101

101:                                              ; preds = %100
  store i32 -1, ptr %8, align 4, !tbaa !3
  br label %163

102:                                              ; No predecessors!
  br label %103

103:                                              ; preds = %102
  br label %104

104:                                              ; preds = %103
  br label %105

105:                                              ; preds = %104
  br label %106

106:                                              ; preds = %105, %83
  br label %107

107:                                              ; preds = %106, %80, %71
  br label %162

108:                                              ; preds = %27
  call void @llvm.lifetime.start.p0(i64 264, ptr %10) #12
  call void @llvm.memset.p0.i64(ptr align 16 %10, i8 0, i64 264, i1 false)
  %109 = load ptr, ptr %7, align 8, !tbaa !140
  %110 = icmp eq ptr %109, null
  br i1 %110, label %111, label %113

111:                                              ; preds = %108
  %112 = getelementptr inbounds [33 x i64], ptr %10, i64 0, i64 0
  store ptr %112, ptr %7, align 8, !tbaa !140
  br label %113

113:                                              ; preds = %111, %108
  %114 = load ptr, ptr %5, align 8, !tbaa !49
  %115 = load i8, ptr %6, align 1, !tbaa !7, !range !9, !noundef !10
  %116 = trunc i8 %115 to i1
  %117 = load ptr, ptr %7, align 8, !tbaa !140
  %118 = call i32 @H5D__chunk_allocate(ptr noundef %114, i1 noundef zeroext %116, ptr noundef %117)
  %119 = icmp slt i32 %118, 0
  br i1 %119, label %120, label %139

120:                                              ; preds = %113
  br label %121

121:                                              ; preds = %120
  br label %122

122:                                              ; preds = %121
  br label %123

123:                                              ; preds = %122
  %124 = load i64, ptr @H5E_DATASET_g, align 8, !tbaa !11
  %125 = load i64, ptr @H5E_CANTINIT_g, align 8, !tbaa !11
  %126 = call i32 (ptr, ptr, i32, i64, i64, ptr, ...) @H5E_printf_stack(ptr noundef @.str.2, ptr noundef @__func__.H5D__init_storage, i32 noundef 2516, i64 noundef %124, i64 noundef %125, ptr noundef @.str.264)
  br label %127

127:                                              ; preds = %123
  br label %128

128:                                              ; preds = %127
  store i8 1, ptr %9, align 1, !tbaa !7
  %129 = load i8, ptr %9, align 1, !tbaa !7, !range !9, !noundef !10
  %130 = trunc i8 %129 to i1
  %131 = zext i1 %130 to i8
  store i8 %131, ptr %9, align 1, !tbaa !7
  br label %132

132:                                              ; preds = %128
  br label %133

133:                                              ; preds = %132
  br label %134

134:                                              ; preds = %133
  store i32 -1, ptr %8, align 4, !tbaa !3
  store i32 11, ptr %11, align 4
  br label %140

135:                                              ; No predecessors!
  br label %136

136:                                              ; preds = %135
  br label %137

137:                                              ; preds = %136
  br label %138

138:                                              ; preds = %137
  br label %139

139:                                              ; preds = %138, %113
  store i32 2, ptr %11, align 4
  br label %140

140:                                              ; preds = %134, %139
  call void @llvm.lifetime.end.p0(i64 264, ptr %10) #12
  %141 = load i32, ptr %11, align 4
  switch i32 %141, label %166 [
    i32 2, label %162
    i32 11, label %163
  ]

142:                                              ; preds = %27, %27, %27
  br label %143

143:                                              ; preds = %27, %142
  br label %144

144:                                              ; preds = %143
  br label %145

145:                                              ; preds = %144
  br label %146

146:                                              ; preds = %145
  %147 = load i64, ptr @H5E_IO_g, align 8, !tbaa !11
  %148 = load i64, ptr @H5E_UNSUPPORTED_g, align 8, !tbaa !11
  %149 = call i32 (ptr, ptr, i32, i64, i64, ptr, ...) @H5E_printf_stack(ptr noundef @.str.2, ptr noundef @__func__.H5D__init_storage, i32 noundef 2528, i64 noundef %147, i64 noundef %148, ptr noundef @.str.67)
  br label %150

150:                                              ; preds = %146
  br label %151

151:                                              ; preds = %150
  store i8 1, ptr %9, align 1, !tbaa !7
  %152 = load i8, ptr %9, align 1, !tbaa !7, !range !9, !noundef !10
  %153 = trunc i8 %152 to i1
  %154 = zext i1 %153 to i8
  store i8 %154, ptr %9, align 1, !tbaa !7
  br label %155

155:                                              ; preds = %151
  br label %156

156:                                              ; preds = %155
  br label %157

157:                                              ; preds = %156
  store i32 -1, ptr %8, align 4, !tbaa !3
  br label %163

158:                                              ; No predecessors!
  br label %159

159:                                              ; preds = %158
  br label %160

160:                                              ; preds = %159
  br label %161

161:                                              ; preds = %160
  br label %162

162:                                              ; preds = %161, %140, %107, %61
  br label %163

163:                                              ; preds = %162, %140, %157, %101, %55
  br label %164

164:                                              ; preds = %163, %19
  %165 = load i32, ptr %8, align 4, !tbaa !3
  store i32 %165, ptr %4, align 4
  store i32 1, ptr %11, align 4
  br label %166

166:                                              ; preds = %164, %140
  call void @llvm.lifetime.end.p0(i64 1, ptr %9) #12
  call void @llvm.lifetime.end.p0(i64 4, ptr %8) #12
  %167 = load i32, ptr %4, align 4
  ret i32 %167
}