; Function Attrs: nounwind uwtable
define internal fastcc range(i32 -1, 1) i32 @H5D__init_storage(ptr noundef %0, i1 noundef zeroext %1, ptr noundef %2) unnamed_addr #0 {
  %4 = alloca [33 x i64], align 16
  %5 = load i8, ptr @H5D_init_g, align 1, !tbaa !3, !range !7, !noundef !8
  %6 = trunc nuw i8 %5 to i1
  %7 = load i8, ptr @H5_libterm_g, align 1, !range !7
  %8 = trunc nuw i8 %7 to i1
  %9 = xor i1 %8, true
  %10 = select i1 %6, i1 true, i1 %9
  br i1 %10, label %11, label %52, !prof !9

11:                                               ; preds = %3
  %12 = getelementptr inbounds nuw i8, ptr %0, i64 48
  %13 = load ptr, ptr %12, align 8, !tbaa !52
  %14 = getelementptr inbounds nuw i8, ptr %13, i64 248
  %15 = load i32, ptr %14, align 8, !tbaa !58
  switch i32 %15, label %48 [
    i32 0, label %16
    i32 1, label %24
    i32 2, label %39
  ]

16:                                               ; preds = %11
  br i1 %1, label %52, label %17

17:                                               ; preds = %16
  %18 = tail call i32 @H5D__compact_fill(ptr noundef nonnull %0) #12
  %19 = icmp slt i32 %18, 0
  br i1 %19, label %20, label %52

20:                                               ; preds = %17
  %21 = load i64, ptr @H5E_DATASET_g, align 8, !tbaa !10
  %22 = load i64, ptr @H5E_CANTINIT_g, align 8, !tbaa !10
  %23 = tail call i32 (ptr, ptr, i32, i64, i64, ptr, ...) @H5E_printf_stack(ptr noundef nonnull @.str.2, ptr noundef nonnull @__func__.H5D__init_storage, i32 noundef 2490, i64 noundef %21, i64 noundef %22, ptr noundef nonnull @.str.263) #12
  br label %52

24:                                               ; preds = %11
  %25 = getelementptr inbounds nuw i8, ptr %13, i64 232
  %26 = load i64, ptr %25, align 8, !tbaa !91
  %27 = icmp eq i64 %26, 0
  br i1 %27, label %31, label %28

28:                                               ; preds = %24
  %29 = getelementptr inbounds nuw i8, ptr %13, i64 120
  %30 = load ptr, ptr %29, align 8, !tbaa !123
  %.not = icmp eq ptr %30, null
  %brmerge = or i1 %1, %.not
  br i1 %brmerge, label %52, label %32

31:                                               ; preds = %24
  br i1 %1, label %52, label %32

32:                                               ; preds = %28, %31
  %33 = tail call i32 @H5D__contig_fill(ptr noundef nonnull %0) #12
  %34 = icmp slt i32 %33, 0
  br i1 %34, label %35, label %52

35:                                               ; preds = %32
  %36 = load i64, ptr @H5E_DATASET_g, align 8, !tbaa !10
  %37 = load i64, ptr @H5E_CANTINIT_g, align 8, !tbaa !10
  %38 = tail call i32 (ptr, ptr, i32, i64, i64, ptr, ...) @H5E_printf_stack(ptr noundef nonnull @.str.2, ptr noundef nonnull @__func__.H5D__init_storage, i32 noundef 2500, i64 noundef %36, i64 noundef %37, ptr noundef nonnull @.str.264) #12
  br label %52

39:                                               ; preds = %11
  call void @llvm.lifetime.start.p0(i64 264, ptr nonnull %4) #12
  call void @llvm.memset.p0.i64(ptr noundef nonnull align 16 dereferenceable(264) %4, i8 0, i64 264, i1 false)
  %40 = icmp eq ptr %2, null
  %spec.select = select i1 %40, ptr %4, ptr %2
  %41 = call i32 @H5D__chunk_allocate(ptr noundef nonnull %0, i1 noundef zeroext %1, ptr noundef nonnull %spec.select) #12
  %42 = icmp slt i32 %41, 0
  br i1 %42, label %43, label %47

43:                                               ; preds = %39
  %44 = load i64, ptr @H5E_DATASET_g, align 8, !tbaa !10
  %45 = load i64, ptr @H5E_CANTINIT_g, align 8, !tbaa !10
  %46 = call i32 (ptr, ptr, i32, i64, i64, ptr, ...) @H5E_printf_stack(ptr noundef nonnull @.str.2, ptr noundef nonnull @__func__.H5D__init_storage, i32 noundef 2516, i64 noundef %44, i64 noundef %45, ptr noundef nonnull @.str.264) #12
  br label %47

47:                                               ; preds = %39, %43
  %.1 = phi i32 [ -1, %43 ], [ 0, %39 ]
  call void @llvm.lifetime.end.p0(i64 264, ptr nonnull %4) #12
  br label %52

48:                                               ; preds = %11
  %49 = load i64, ptr @H5E_IO_g, align 8, !tbaa !10
  %50 = load i64, ptr @H5E_UNSUPPORTED_g, align 8, !tbaa !10
  %51 = tail call i32 (ptr, ptr, i32, i64, i64, ptr, ...) @H5E_printf_stack(ptr noundef nonnull @.str.2, ptr noundef nonnull @__func__.H5D__init_storage, i32 noundef 2528, i64 noundef %49, i64 noundef %50, ptr noundef nonnull @.str.67) #12
  br label %52

52:                                               ; preds = %47, %3, %17, %16, %32, %31, %48, %35, %20, %28
  %.019 = phi i32 [ -1, %48 ], [ %.1, %47 ], [ 0, %31 ], [ -1, %35 ], [ 0, %32 ], [ 0, %28 ], [ 0, %16 ], [ -1, %20 ], [ 0, %17 ], [ 0, %3 ]
  ret i32 %.019
}